; Function Attrs: null_pointer_is_valid sspstrong uwtable
define internal void @dissect_pfcp_ue_ip_address(ptr noundef %0, ptr noundef %1, ptr noundef %2, ptr readnone captures(none) %3, i16 noundef zeroext %4, i8 zeroext %5, ptr readnone captures(none) %6) #0 {
  %8 = alloca i64, align 8
  call void @llvm.lifetime.start.p0(i64 8, ptr nonnull %8) #15
  call void @proto_tree_add_bitmask_list_ret_uint64(ptr noundef %2, ptr noundef %0, i32 noundef 0, i32 noundef 1, ptr noundef nonnull @dissect_pfcp_ue_ip_address.pfcp_ue_ip_address_flags, i32 noundef 0, ptr noundef nonnull %8)
  %9 = load i64, ptr %8, align 8
  %10 = and i64 %9, 2
  %.not = icmp eq i64 %10, 0
  br i1 %.not, label %14, label %11

11:                                               ; preds = %7
  %12 = load i32, ptr @hf_pfcp_ue_ip_addr_ipv4, align 4
  %13 = call ptr @proto_tree_add_item(ptr noundef %2, i32 noundef %12, ptr noundef %0, i32 noundef 1, i32 noundef 4, i32 noundef 0)
  %.pre = load i64, ptr %8, align 8
  br label %14

14:                                               ; preds = %11, %7
  %15 = phi i64 [ %.pre, %11 ], [ %9, %7 ]
  %.0 = phi i32 [ 5, %11 ], [ 1, %7 ]
  %16 = and i64 %15, 1
  %.not25 = icmp eq i64 %16, 0
  br i1 %.not25, label %21, label %17

17:                                               ; preds = %14
  %18 = load i32, ptr @hf_pfcp_ue_ip_add_ipv6, align 4
  %19 = call ptr @proto_tree_add_item(ptr noundef %2, i32 noundef %18, ptr noundef %0, i32 noundef %.0, i32 noundef 16, i32 noundef 0)
  %20 = or disjoint i32 %.0, 16
  %.pre28 = load i64, ptr %8, align 8
  br label %21

21:                                               ; preds = %17, %14
  %22 = phi i64 [ %.pre28, %17 ], [ %15, %14 ]
  %.1 = phi i32 [ %20, %17 ], [ %.0, %14 ]
  %23 = and i64 %22, 8
  %.not26 = icmp eq i64 %23, 0
  br i1 %.not26, label %28, label %24

24:                                               ; preds = %21
  %25 = load i32, ptr @hf_pfcp_ue_ip_add_ipv6_prefix_delegation_bits, align 4
  %26 = call ptr @proto_tree_add_item(ptr noundef %2, i32 noundef %25, ptr noundef %0, i32 noundef %.1, i32 noundef 1, i32 noundef 0)
  %27 = add nuw nsw i32 %.1, 1
  %.pre29 = load i64, ptr %8, align 8
  br label %28

28:                                               ; preds = %24, %21
  %29 = phi i64 [ %.pre29, %24 ], [ %22, %21 ]
  %.2 = phi i32 [ %27, %24 ], [ %.1, %21 ]
  %30 = and i64 %29, 64
  %.not27 = icmp eq i64 %30, 0
  br i1 %.not27, label %35, label %31

31:                                               ; preds = %28
  %32 = load i32, ptr @hf_pfcp_ue_ip_add_ipv6_prefix_length, align 4
  %33 = call ptr @proto_tree_add_item(ptr noundef %2, i32 noundef %32, ptr noundef %0, i32 noundef %.2, i32 noundef 1, i32 noundef 0)
  %34 = add nuw nsw i32 %.2, 1
  br label %35

35:                                               ; preds = %31, %28
  %.3 = phi i32 [ %34, %31 ], [ %.2, %28 ]
  %36 = zext i16 %4 to i32
  %37 = icmp samesign ult i32 %.3, %36
  br i1 %37, label %38, label %40

38:                                               ; preds = %35
  %39 = call ptr @proto_tree_add_expert(ptr noundef %2, ptr noundef %1, ptr noundef nonnull @ei_pfcp_ie_data_not_decoded, ptr noundef %0, i32 noundef %.3, i32 noundef -1)
  br label %40

40:                                               ; preds = %38, %35
  call void @llvm.lifetime.end.p0(i64 8, ptr nonnull %8) #15
  ret void
}